target datalayout = "e-m:e-p270:32:32-p271:32:32-p272:64:64-i64:64-i128:128-f80:128-n8:16:32:64-S128"
target triple = "x86_64-pc-linux-gnu"

%class.JavaValue = type { i8, %"union.JavaValue::JavaCallValue" }
%"union.JavaValue::JavaCallValue" = type { double }
%"class.JfrJavaArguments::Parameters" = type { [16 x %class.JavaValue], i32, i32 }
%class.Handle = type { ptr }
%class.JfrJavaArguments = type <{ %"class.JfrJavaArguments::Parameters", ptr, ptr, ptr, ptr, i32, [4 x i8] }>
%class.ThreadShadow = type <{ ptr, ptr, ptr, i32, [4 x i8] }>

@_ZN16JfrJavaArguments10ParametersC1Ev = hidden unnamed_addr alias void (ptr), ptr @_ZN16JfrJavaArguments10ParametersC2Ev

; Function Attrs: mustprogress nounwind uwtable
define linkonce_odr hidden void @_ZN6HandleC2Ev(ptr noundef nonnull align 8 dereferenceable(8) %0) unnamed_addr #1 comdat align 2 {
  %2 = alloca ptr, align 8
  store ptr %0, ptr %2, align 8
  %3 = load ptr, ptr %2, align 8
  %4 = getelementptr inbounds %class.Handle, ptr %3, i32 0, i32 0
  store ptr null, ptr %4, align 8
  ret void
}

; Function Attrs: mustprogress nounwind uwtable
define linkonce_odr hidden noundef ptr @_ZN16SystemDictionary15resolve_or_failEP6SymbolbP10JavaThread(ptr noundef %0, i1 noundef zeroext %1, ptr noundef %2) #1 comdat align 2 {
  %4 = alloca ptr, align 8
  %5 = alloca i8, align 1
  %6 = alloca ptr, align 8
  %7 = alloca %class.Handle, align 8
  %8 = alloca %class.Handle, align 8
  store ptr %0, ptr %4, align 8
  %9 = zext i1 %1 to i8
  store i8 %9, ptr %5, align 1
  store ptr %2, ptr %6, align 8
  %10 = load ptr, ptr %4, align 8
  call void @_ZN6HandleC2Ev(ptr noundef nonnull align 8 dereferenceable(8) %7)
  call void @_ZN6HandleC2Ev(ptr noundef nonnull align 8 dereferenceable(8) %8)
  %11 = load i8, ptr %5, align 1
  %12 = trunc i8 %11 to i1
  %13 = load ptr, ptr %6, align 8
  %14 = getelementptr inbounds %class.Handle, ptr %7, i32 0, i32 0
  %15 = load ptr, ptr %14, align 8
  %16 = getelementptr inbounds %class.Handle, ptr %8, i32 0, i32 0
  %17 = load ptr, ptr %16, align 8
  %18 = call noundef ptr @_ZN16SystemDictionary15resolve_or_failEP6Symbol6HandleS2_bP10JavaThread(ptr noundef %10, ptr %15, ptr %17, i1 noundef zeroext %12, ptr noundef %13)
  ret ptr %18
}

; Function Attrs: mustprogress nounwind uwtable
define linkonce_odr hidden noundef ptr @_ZN11SymbolTable10new_symbolEPKc(ptr noundef %0) #1 comdat align 2 {
  %2 = alloca ptr, align 8
  store ptr %0, ptr %2, align 8
  %3 = load ptr, ptr %2, align 8
  %4 = load ptr, ptr %2, align 8
  %5 = call i64 @strlen(ptr noundef %4) #9
  %6 = trunc i64 %5 to i32
  %7 = call noundef ptr @_ZN11SymbolTable10new_symbolEPKci(ptr noundef %3, i32 noundef %6)
  ret ptr %7
}

; Function Attrs: mustprogress nounwind uwtable
define hidden void @_ZN16JfrJavaArguments13set_signatureEPK6Symbol(ptr noundef nonnull align 8 dereferenceable(300) %0, ptr noundef %1) #1 align 2 {
  %3 = alloca ptr, align 8
  %4 = alloca ptr, align 8
  store ptr %0, ptr %3, align 8
  store ptr %1, ptr %4, align 8
  %5 = load ptr, ptr %3, align 8
  %6 = load ptr, ptr %4, align 8
  %7 = getelementptr inbounds %class.JfrJavaArguments, ptr %5, i32 0, i32 4
  store ptr %6, ptr %7, align 8
  ret void
}

; Function Attrs: mustprogress nounwind uwtable
define hidden void @_ZN16JfrJavaArguments8set_nameEPK6Symbol(ptr noundef nonnull align 8 dereferenceable(300) %0, ptr noundef %1) #1 align 2 {
  %3 = alloca ptr, align 8
  %4 = alloca ptr, align 8
  store ptr %0, ptr %3, align 8
  store ptr %1, ptr %4, align 8
  %5 = load ptr, ptr %3, align 8
  %6 = load ptr, ptr %4, align 8
  %7 = getelementptr inbounds %class.JfrJavaArguments, ptr %5, i32 0, i32 3
  store ptr %6, ptr %7, align 8
  ret void
}

; Function Attrs: mustprogress nounwind uwtable
define hidden void @_ZN16JfrJavaArguments9set_klassEPK5Klass(ptr noundef nonnull align 8 dereferenceable(300) %0, ptr noundef %1) #1 align 2 {
  %3 = alloca ptr, align 8
  %4 = alloca ptr, align 8
  store ptr %0, ptr %3, align 8
  store ptr %1, ptr %4, align 8
  %5 = load ptr, ptr %3, align 8
  %6 = load ptr, ptr %4, align 8
  %7 = getelementptr inbounds %class.JfrJavaArguments, ptr %5, i32 0, i32 2
  store ptr %6, ptr %7, align 8
  ret void
}

; Function Attrs: mustprogress nounwind uwtable
define internal noundef ptr @_ZL7resolveP6SymbolP10JavaThread(ptr noundef %0, ptr noundef %1) #1 {
  %3 = alloca ptr, align 8
  %4 = alloca ptr, align 8
  store ptr %0, ptr %3, align 8
  store ptr %1, ptr %4, align 8
  %5 = load ptr, ptr %3, align 8
  %6 = load ptr, ptr %4, align 8
  %7 = call noundef ptr @_ZN16SystemDictionary15resolve_or_failEP6SymbolbP10JavaThread(ptr noundef %5, i1 noundef zeroext true, ptr noundef %6)
  ret ptr %7
}

; Function Attrs: mustprogress nounwind uwtable
define internal noundef ptr @_ZL7resolvePKc(ptr noundef %0) #1 {
  %2 = alloca ptr, align 8
  store ptr %0, ptr %2, align 8
  %3 = load ptr, ptr %2, align 8
  %4 = call noundef ptr @_ZN11SymbolTable10new_symbolEPKc(ptr noundef %3)
  ret ptr %4
}

; Function Attrs: mustprogress nounwind uwtable
define hidden void @_ZN16JfrJavaArguments13set_signatureEPKc(ptr noundef nonnull align 8 dereferenceable(300) %0, ptr noundef %1) #1 align 2 {
  %3 = alloca ptr, align 8
  %4 = alloca ptr, align 8
  %5 = alloca ptr, align 8
  store ptr %0, ptr %3, align 8
  store ptr %1, ptr %4, align 8
  %6 = load ptr, ptr %3, align 8
  %7 = load ptr, ptr %4, align 8
  %8 = call noundef ptr @_ZL7resolvePKc(ptr noundef %7)
  store ptr %8, ptr %5, align 8
  %9 = load ptr, ptr %5, align 8
  call void @_ZN16JfrJavaArguments13set_signatureEPK6Symbol(ptr noundef nonnull align 8 dereferenceable(300) %6, ptr noundef %9)
  ret void
}

; Function Attrs: mustprogress nounwind uwtable
define hidden void @_ZN16JfrJavaArguments8set_nameEPKc(ptr noundef nonnull align 8 dereferenceable(300) %0, ptr noundef %1) #1 align 2 {
  %3 = alloca ptr, align 8
  %4 = alloca ptr, align 8
  %5 = alloca ptr, align 8
  store ptr %0, ptr %3, align 8
  store ptr %1, ptr %4, align 8
  %6 = load ptr, ptr %3, align 8
  %7 = load ptr, ptr %4, align 8
  %8 = call noundef ptr @_ZL7resolvePKc(ptr noundef %7)
  store ptr %8, ptr %5, align 8
  %9 = load ptr, ptr %5, align 8
  call void @_ZN16JfrJavaArguments8set_nameEPK6Symbol(ptr noundef nonnull align 8 dereferenceable(300) %6, ptr noundef %9)
  ret void
}

; Function Attrs: mustprogress nounwind uwtable
define linkonce_odr hidden noundef zeroext i1 @_ZNK12ThreadShadow21has_pending_exceptionEv(ptr noundef nonnull align 8 dereferenceable(28) %0) #1 comdat align 2 {
  %2 = alloca ptr, align 8
  store ptr %0, ptr %2, align 8
  %3 = load ptr, ptr %2, align 8
  %4 = getelementptr inbounds %class.ThreadShadow, ptr %3, i32 0, i32 1
  %5 = load ptr, ptr %4, align 8
  %6 = icmp ne ptr %5, null
  ret i1 %6
}

; Function Attrs: mustprogress nounwind uwtable
define hidden void @_ZN16JfrJavaArguments9set_klassEPKcP10JavaThread(ptr noundef nonnull align 8 dereferenceable(300) %0, ptr noundef %1, ptr noundef %2) #1 align 2 {
  %4 = alloca ptr, align 8
  %5 = alloca ptr, align 8
  %6 = alloca ptr, align 8
  %7 = alloca ptr, align 8
  %8 = alloca ptr, align 8
  store ptr %0, ptr %4, align 8
  store ptr %1, ptr %5, align 8
  store ptr %2, ptr %6, align 8
  %9 = load ptr, ptr %4, align 8
  %10 = load ptr, ptr %5, align 8
  %11 = call noundef ptr @_ZL7resolvePKc(ptr noundef %10)
  store ptr %11, ptr %7, align 8
  %12 = load ptr, ptr %7, align 8
  %13 = load ptr, ptr %6, align 8
  %14 = call noundef ptr @_ZL7resolveP6SymbolP10JavaThread(ptr noundef %12, ptr noundef %13)
  store ptr %14, ptr %8, align 8
  %15 = load ptr, ptr %6, align 8
  %16 = call noundef zeroext i1 @_ZNK12ThreadShadow21has_pending_exceptionEv(ptr noundef nonnull align 8 dereferenceable(28) %15)
  br i1 %16, label %17, label %18

17:                                               ; preds = %3
  br label %20

18:                                               ; preds = %3
  %19 = load ptr, ptr %8, align 8
  call void @_ZN16JfrJavaArguments9set_klassEPK5Klass(ptr noundef nonnull align 8 dereferenceable(300) %9, ptr noundef %19)
  br label %20

20:                                               ; preds = %18, %17
  ret void
}

; Function Attrs: mustprogress nounwind uwtable
define hidden void @_ZN16JfrJavaArgumentsC2EP9JavaValuePKcS3_S3_P10JavaThread(ptr noundef nonnull align 8 dereferenceable(300) %0, ptr noundef %1, ptr noundef %2, ptr noundef %3, ptr noundef %4, ptr noundef %5) unnamed_addr #1 align 2 {
  %7 = alloca ptr, align 8
  %8 = alloca ptr, align 8
  %9 = alloca ptr, align 8
  %10 = alloca ptr, align 8
  %11 = alloca ptr, align 8
  %12 = alloca ptr, align 8
  store ptr %0, ptr %7, align 8
  store ptr %1, ptr %8, align 8
  store ptr %2, ptr %9, align 8
  store ptr %3, ptr %10, align 8
  store ptr %4, ptr %11, align 8
  store ptr %5, ptr %12, align 8
  %13 = load ptr, ptr %7, align 8
  %14 = getelementptr inbounds %class.JfrJavaArguments, ptr %13, i32 0, i32 0
  call void @_ZN16JfrJavaArguments10ParametersC1Ev(ptr noundef nonnull align 8 dereferenceable(264) %14)
  %15 = getelementptr inbounds %class.JfrJavaArguments, ptr %13, i32 0, i32 1
  %16 = load ptr, ptr %8, align 8
  store ptr %16, ptr %15, align 8
  %17 = getelementptr inbounds %class.JfrJavaArguments, ptr %13, i32 0, i32 2
  store ptr null, ptr %17, align 8
  %18 = getelementptr inbounds %class.JfrJavaArguments, ptr %13, i32 0, i32 3
  store ptr null, ptr %18, align 8
  %19 = getelementptr inbounds %class.JfrJavaArguments, ptr %13, i32 0, i32 4
  store ptr null, ptr %19, align 8
  %20 = getelementptr inbounds %class.JfrJavaArguments, ptr %13, i32 0, i32 5
  store i32 -1, ptr %20, align 8
  %21 = load ptr, ptr %9, align 8
  %22 = icmp ne ptr %21, null
  br i1 %22, label %23, label %30

23:                                               ; preds = %6
  %24 = load ptr, ptr %9, align 8
  %25 = load ptr, ptr %12, align 8
  call void @_ZN16JfrJavaArguments9set_klassEPKcP10JavaThread(ptr noundef nonnull align 8 dereferenceable(300) %13, ptr noundef %24, ptr noundef %25)
  %26 = load ptr, ptr %12, align 8
  %27 = call noundef zeroext i1 @_ZNK12ThreadShadow21has_pending_exceptionEv(ptr noundef nonnull align 8 dereferenceable(28) %26)
  br i1 %27, label %28, label %29

28:                                               ; preds = %23
  br label %40

29:                                               ; preds = %23
  br label %30

30:                                               ; preds = %29, %6
  %31 = load ptr, ptr %10, align 8
  %32 = icmp ne ptr %31, null
  br i1 %32, label %33, label %35

33:                                               ; preds = %30
  %34 = load ptr, ptr %10, align 8
  call void @_ZN16JfrJavaArguments8set_nameEPKc(ptr noundef nonnull align 8 dereferenceable(300) %13, ptr noundef %34)
  br label %35

35:                                               ; preds = %33, %30
  %36 = load ptr, ptr %11, align 8
  %37 = icmp ne ptr %36, null
  br i1 %37, label %38, label %40

38:                                               ; preds = %35
  %39 = load ptr, ptr %11, align 8
  call void @_ZN16JfrJavaArguments13set_signatureEPKc(ptr noundef nonnull align 8 dereferenceable(300) %13, ptr noundef %39)
  br label %40

40:                                               ; preds = %38, %35, %28
  ret void
}