; Function Attrs: mustprogress nounwind uwtable
define hidden void @_ZN16JfrJavaArgumentsC2EP9JavaValuePKcS3_S3_P10JavaThread(ptr nocapture noundef nonnull writeonly align 8 dereferenceable(300) %0, ptr noundef %1, ptr noundef %2, ptr noundef %3, ptr noundef %4, ptr noundef %5) unnamed_addr #6 align 2 {
  br label %7

7:                                                ; preds = %7, %6
  %.idx.i = phi i64 [ 0, %6 ], [ %.add.i, %7 ]
  %.ptr.i = getelementptr inbounds i8, ptr %0, i64 %.idx.i
  store i8 99, ptr %.ptr.i, align 8
  %.add.i = add nuw nsw i64 %.idx.i, 16
  %8 = icmp eq i64 %.add.i, 256
  br i1 %8, label %_ZN16JfrJavaArguments10ParametersC2Ev.exit, label %7

_ZN16JfrJavaArguments10ParametersC2Ev.exit:       ; preds = %7
  %9 = getelementptr inbounds i8, ptr %0, i64 256
  %10 = getelementptr inbounds i8, ptr %0, i64 260
  store i32 1, ptr %9, align 8
  store i8 14, ptr %0, align 8
  store i32 1, ptr %10, align 4
  %11 = getelementptr inbounds i8, ptr %0, i64 264
  store ptr %1, ptr %11, align 8
  %12 = getelementptr inbounds i8, ptr %0, i64 272
  %13 = getelementptr inbounds i8, ptr %0, i64 280
  %14 = getelementptr inbounds i8, ptr %0, i64 288
  %15 = getelementptr inbounds i8, ptr %0, i64 296
  tail call void @llvm.memset.p0.i64(ptr noundef nonnull align 8 dereferenceable(24) %12, i8 0, i64 24, i1 false)
  store i32 -1, ptr %15, align 8
  %.not = icmp eq ptr %2, null
  br i1 %.not, label %23, label %16

16:                                               ; preds = %_ZN16JfrJavaArguments10ParametersC2Ev.exit
  %17 = tail call i64 @strlen(ptr noundef nonnull dereferenceable(1) %2) #14
  %18 = trunc i64 %17 to i32
  %19 = tail call noundef ptr @_ZN11SymbolTable10new_symbolEPKci(ptr noundef nonnull %2, i32 noundef %18) #12
  %20 = tail call noundef ptr @_ZN16SystemDictionary15resolve_or_failEP6Symbol6HandleS2_bP10JavaThread(ptr noundef %19, ptr null, ptr null, i1 noundef zeroext true, ptr noundef %5) #12
  %21 = getelementptr inbounds i8, ptr %5, i64 8
  %22 = load ptr, ptr %21, align 8
  %.not.i = icmp eq ptr %22, null
  br i1 %.not.i, label %_ZN16JfrJavaArguments9set_klassEPKcP10JavaThread.exit, label %_ZN16JfrJavaArguments9set_klassEPKcP10JavaThread.exit.thread

_ZN16JfrJavaArguments9set_klassEPKcP10JavaThread.exit: ; preds = %16
  store ptr %20, ptr %12, align 8
  %.pr = load ptr, ptr %21, align 8
  %.not14 = icmp eq ptr %.pr, null
  br i1 %.not14, label %23, label %_ZN16JfrJavaArguments9set_klassEPKcP10JavaThread.exit.thread

23:                                               ; preds = %_ZN16JfrJavaArguments9set_klassEPKcP10JavaThread.exit, %_ZN16JfrJavaArguments10ParametersC2Ev.exit
  %.not12 = icmp eq ptr %3, null
  br i1 %.not12, label %28, label %24

24:                                               ; preds = %23
  %25 = tail call i64 @strlen(ptr noundef nonnull dereferenceable(1) %3) #14
  %26 = trunc i64 %25 to i32
  %27 = tail call noundef ptr @_ZN11SymbolTable10new_symbolEPKci(ptr noundef nonnull %3, i32 noundef %26) #12
  store ptr %27, ptr %13, align 8
  br label %28

28:                                               ; preds = %24, %23
  %.not13 = icmp eq ptr %4, null
  br i1 %.not13, label %_ZN16JfrJavaArguments9set_klassEPKcP10JavaThread.exit.thread, label %29

29:                                               ; preds = %28
  %30 = tail call i64 @strlen(ptr noundef nonnull dereferenceable(1) %4) #14
  %31 = trunc i64 %30 to i32
  %32 = tail call noundef ptr @_ZN11SymbolTable10new_symbolEPKci(ptr noundef nonnull %4, i32 noundef %31) #12
  store ptr %32, ptr %14, align 8
  br label %_ZN16JfrJavaArguments9set_klassEPKcP10JavaThread.exit.thread

_ZN16JfrJavaArguments9set_klassEPKcP10JavaThread.exit.thread: ; preds = %16, %_ZN16JfrJavaArguments9set_klassEPKcP10JavaThread.exit, %29, %28
  ret void
}